; Function Attrs: mustprogress nounwind uwtable
define void @_ZN7rocksdb4port5CrashERKNSt7__cxx1112basic_stringIcSt11char_traitsIcESaIcEEEi(ptr noundef nonnull readonly align 8 captures(none) dereferenceable(32) %0, i32 noundef %1) local_unnamed_addr #3 {
  %3 = load ptr, ptr @stdout, align 8, !tbaa !4
  %4 = load ptr, ptr %0, align 8, !tbaa !9
  %5 = tail call i32 (ptr, ptr, ...) @fprintf(ptr noundef %3, ptr noundef nonnull @.str.19, ptr noundef %4, i32 noundef %1) #17
  %6 = load ptr, ptr @stdout, align 8, !tbaa !4
  %7 = tail call i32 @fflush(ptr noundef %6)
  %8 = tail call i32 @getpid() #17
  %9 = tail call i32 @kill(i32 noundef %8, i32 noundef 15) #17
  ret void
}